target datalayout = "e-m:e-p270:32:32-p271:32:32-p272:64:64-i64:64-i128:128-f80:128-n8:16:32:64-S128"
target triple = "x86_64-pc-linux-gnu"

%struct.ZSTD_frameParameters = type { i32, i32, i32 }
%struct.ZSTD_compressionParameters = type { i32, i32, i32, i32, i32, i32, i32 }
%struct.ZSTD_parameters = type { %struct.ZSTD_compressionParameters, %struct.ZSTD_frameParameters }

; Function Attrs: nounwind uwtable
define internal void @ZSTD_getParams_internal(ptr dead_on_unwind noalias writable sret(%struct.ZSTD_parameters) align 4 %0, i32 noundef %1, i64 noundef %2, i64 noundef %3, i32 noundef %4) #0 {
  %6 = alloca i32, align 4
  %7 = alloca i64, align 8
  %8 = alloca i64, align 8
  %9 = alloca i32, align 4
  %10 = alloca %struct.ZSTD_compressionParameters, align 4
  store i32 %1, ptr %6, align 4
  store i64 %2, ptr %7, align 8
  store i64 %3, ptr %8, align 8
  store i32 %4, ptr %9, align 4
  %11 = load i32, ptr %6, align 4
  %12 = load i64, ptr %7, align 8
  %13 = load i64, ptr %8, align 8
  %14 = load i32, ptr %9, align 4
  call void @ZSTD_getCParams_internal(ptr dead_on_unwind writable sret(%struct.ZSTD_compressionParameters) align 4 %10, i32 noundef %11, i64 noundef %12, i64 noundef %13, i32 noundef %14)
  call void @llvm.memset.p0.i64(ptr align 4 %0, i8 0, i64 40, i1 false)
  %15 = getelementptr inbounds %struct.ZSTD_parameters, ptr %0, i32 0, i32 0
  call void @llvm.memcpy.p0.p0.i64(ptr align 4 %15, ptr align 4 %10, i64 28, i1 false)
  %16 = getelementptr inbounds %struct.ZSTD_parameters, ptr %0, i32 0, i32 1
  %17 = getelementptr inbounds %struct.ZSTD_frameParameters, ptr %16, i32 0, i32 0
  store i32 1, ptr %17, align 4
  ret void
}

; Function Attrs: nounwind uwtable
define dso_local void @ZSTD_getParams(ptr dead_on_unwind noalias writable sret(%struct.ZSTD_parameters) align 4 %0, i32 noundef %1, i64 noundef %2, i64 noundef %3) #0 {
  %5 = alloca i32, align 4
  %6 = alloca i64, align 8
  %7 = alloca i64, align 8
  store i32 %1, ptr %5, align 4
  store i64 %2, ptr %6, align 8
  store i64 %3, ptr %7, align 8
  %8 = load i64, ptr %6, align 8
  %9 = icmp eq i64 %8, 0
  br i1 %9, label %10, label %11

10:                                               ; preds = %4
  store i64 -1, ptr %6, align 8
  br label %11

11:                                               ; preds = %10, %4
  %12 = load i32, ptr %5, align 4
  %13 = load i64, ptr %6, align 8
  %14 = load i64, ptr %7, align 8
  call void @ZSTD_getParams_internal(ptr dead_on_unwind writable sret(%struct.ZSTD_parameters) align 4 %0, i32 noundef %12, i64 noundef %13, i64 noundef %14, i32 noundef 3)
  ret void
}